target datalayout = "e-m:e-p270:32:32-p271:32:32-p272:64:64-i64:64-i128:128-f80:128-n8:16:32:64-S128"
target triple = "x86_64-pc-linux-gnu"

%struct.bio_st = type { ptr, ptr, ptr, ptr, ptr, i32, i32, i32, i32, i32, ptr, ptr, ptr, %struct.CRYPTO_REF_COUNT, i64, i64, %struct.crypto_ex_data_st }
%struct.CRYPTO_REF_COUNT = type { i32 }
%struct.crypto_ex_data_st = type { ptr, ptr }
%struct.bio_f_buffer_ctx_struct = type { i32, i32, ptr, i32, i32, ptr, i32, i32 }

@.str.2 = private unnamed_addr constant [36 x i8] c"../openssl/crypto/bio/bf_readbuff.c\00", align 1

; Function Attrs: nounwind uwtable
define internal i32 @readbuffer_resize(ptr noundef %0, i32 noundef %1) #0 {
  %3 = alloca i32, align 4
  %4 = alloca ptr, align 8
  %5 = alloca i32, align 4
  %6 = alloca ptr, align 8
  %7 = alloca i32, align 4
  store ptr %0, ptr %4, align 8, !tbaa !20
  store i32 %1, ptr %5, align 4, !tbaa !10
  call void @llvm.lifetime.start.p0(i64 8, ptr %6) #4
  %8 = load ptr, ptr %4, align 8, !tbaa !20
  %9 = getelementptr inbounds nuw %struct.bio_f_buffer_ctx_struct, ptr %8, i32 0, i32 4
  %10 = load i32, ptr %9, align 4, !tbaa !26
  %11 = add nsw i32 %10, 4096
  %12 = sub nsw i32 %11, 1
  %13 = load i32, ptr %5, align 4, !tbaa !10
  %14 = add nsw i32 %13, %12
  store i32 %14, ptr %5, align 4, !tbaa !10
  %15 = load i32, ptr %5, align 4, !tbaa !10
  %16 = sdiv i32 %15, 4096
  %17 = mul nsw i32 4096, %16
  store i32 %17, ptr %5, align 4, !tbaa !10
  %18 = load i32, ptr %5, align 4, !tbaa !10
  %19 = load ptr, ptr %4, align 8, !tbaa !20
  %20 = getelementptr inbounds nuw %struct.bio_f_buffer_ctx_struct, ptr %19, i32 0, i32 0
  %21 = load i32, ptr %20, align 8, !tbaa !33
  %22 = icmp sgt i32 %18, %21
  br i1 %22, label %23, label %40

23:                                               ; preds = %2
  %24 = load ptr, ptr %4, align 8, !tbaa !20
  %25 = getelementptr inbounds nuw %struct.bio_f_buffer_ctx_struct, ptr %24, i32 0, i32 2
  %26 = load ptr, ptr %25, align 8, !tbaa !25
  %27 = load i32, ptr %5, align 4, !tbaa !10
  %28 = sext i32 %27 to i64
  %29 = call ptr @CRYPTO_realloc(ptr noundef %26, i64 noundef %28, ptr noundef @.str.2, i32 noundef 97)
  store ptr %29, ptr %6, align 8, !tbaa !8
  %30 = load ptr, ptr %6, align 8, !tbaa !8
  %31 = icmp eq ptr %30, null
  br i1 %31, label %32, label %33

32:                                               ; preds = %23
  store i32 0, ptr %3, align 4
  store i32 1, ptr %7, align 4
  br label %41

33:                                               ; preds = %23
  %34 = load ptr, ptr %6, align 8, !tbaa !8
  %35 = load ptr, ptr %4, align 8, !tbaa !20
  %36 = getelementptr inbounds nuw %struct.bio_f_buffer_ctx_struct, ptr %35, i32 0, i32 2
  store ptr %34, ptr %36, align 8, !tbaa !25
  %37 = load i32, ptr %5, align 4, !tbaa !10
  %38 = load ptr, ptr %4, align 8, !tbaa !20
  %39 = getelementptr inbounds nuw %struct.bio_f_buffer_ctx_struct, ptr %38, i32 0, i32 0
  store i32 %37, ptr %39, align 8, !tbaa !33
  br label %40

40:                                               ; preds = %33, %2
  store i32 1, ptr %3, align 4
  store i32 1, ptr %7, align 4
  br label %41

41:                                               ; preds = %40, %32
  call void @llvm.lifetime.end.p0(i64 8, ptr %6) #4
  %42 = load i32, ptr %3, align 4
  ret i32 %42
}

; Function Attrs: nounwind uwtable
define internal i32 @readbuffer_read(ptr noundef %0, ptr noundef %1, i32 noundef %2) #0 {
  %4 = alloca i32, align 4
  %5 = alloca ptr, align 8
  %6 = alloca ptr, align 8
  %7 = alloca i32, align 4
  %8 = alloca i32, align 4
  %9 = alloca i32, align 4
  %10 = alloca ptr, align 8
  %11 = alloca i32, align 4
  store ptr %0, ptr %5, align 8, !tbaa !3
  store ptr %1, ptr %6, align 8, !tbaa !8
  store i32 %2, ptr %7, align 4, !tbaa !10
  call void @llvm.lifetime.start.p0(i64 4, ptr %8) #4
  call void @llvm.lifetime.start.p0(i64 4, ptr %9) #4
  store i32 0, ptr %9, align 4, !tbaa !10
  call void @llvm.lifetime.start.p0(i64 8, ptr %10) #4
  %12 = load ptr, ptr %6, align 8, !tbaa !8
  %13 = icmp eq ptr %12, null
  br i1 %13, label %17, label %14

14:                                               ; preds = %3
  %15 = load i32, ptr %7, align 4, !tbaa !10
  %16 = icmp eq i32 %15, 0
  br i1 %16, label %17, label %18

17:                                               ; preds = %14, %3
  store i32 0, ptr %4, align 4
  store i32 1, ptr %11, align 4
  br label %123

18:                                               ; preds = %14
  %19 = load ptr, ptr %5, align 8, !tbaa !3
  %20 = getelementptr inbounds nuw %struct.bio_st, ptr %19, i32 0, i32 10
  %21 = load ptr, ptr %20, align 8, !tbaa !12
  store ptr %21, ptr %10, align 8, !tbaa !20
  %22 = load ptr, ptr %10, align 8, !tbaa !20
  %23 = icmp eq ptr %22, null
  br i1 %23, label %29, label %24

24:                                               ; preds = %18
  %25 = load ptr, ptr %5, align 8, !tbaa !3
  %26 = getelementptr inbounds nuw %struct.bio_st, ptr %25, i32 0, i32 11
  %27 = load ptr, ptr %26, align 8, !tbaa !22
  %28 = icmp eq ptr %27, null
  br i1 %28, label %29, label %30

29:                                               ; preds = %24, %18
  store i32 0, ptr %4, align 4
  store i32 1, ptr %11, align 4
  br label %123

30:                                               ; preds = %24
  %31 = load ptr, ptr %5, align 8, !tbaa !3
  call void @BIO_clear_flags(ptr noundef %31, i32 noundef 15)
  br label %32

32:                                               ; preds = %119, %30
  %33 = load ptr, ptr %10, align 8, !tbaa !20
  %34 = getelementptr inbounds nuw %struct.bio_f_buffer_ctx_struct, ptr %33, i32 0, i32 3
  %35 = load i32, ptr %34, align 8, !tbaa !23
  store i32 %35, ptr %8, align 4, !tbaa !10
  %36 = load i32, ptr %8, align 4, !tbaa !10
  %37 = icmp ne i32 %36, 0
  br i1 %37, label %38, label %82

38:                                               ; preds = %32
  %39 = load i32, ptr %8, align 4, !tbaa !10
  %40 = load i32, ptr %7, align 4, !tbaa !10
  %41 = icmp sgt i32 %39, %40
  br i1 %41, label %42, label %44

42:                                               ; preds = %38
  %43 = load i32, ptr %7, align 4, !tbaa !10
  store i32 %43, ptr %8, align 4, !tbaa !10
  br label %44

44:                                               ; preds = %42, %38
  %45 = load ptr, ptr %6, align 8, !tbaa !8
  %46 = load ptr, ptr %10, align 8, !tbaa !20
  %47 = getelementptr inbounds nuw %struct.bio_f_buffer_ctx_struct, ptr %46, i32 0, i32 2
  %48 = load ptr, ptr %47, align 8, !tbaa !25
  %49 = load ptr, ptr %10, align 8, !tbaa !20
  %50 = getelementptr inbounds nuw %struct.bio_f_buffer_ctx_struct, ptr %49, i32 0, i32 4
  %51 = load i32, ptr %50, align 4, !tbaa !26
  %52 = sext i32 %51 to i64
  %53 = getelementptr inbounds i8, ptr %48, i64 %52
  %54 = load i32, ptr %8, align 4, !tbaa !10
  %55 = sext i32 %54 to i64
  call void @llvm.memcpy.p0.p0.i64(ptr align 1 %45, ptr align 1 %53, i64 %55, i1 false)
  %56 = load i32, ptr %8, align 4, !tbaa !10
  %57 = load ptr, ptr %10, align 8, !tbaa !20
  %58 = getelementptr inbounds nuw %struct.bio_f_buffer_ctx_struct, ptr %57, i32 0, i32 4
  %59 = load i32, ptr %58, align 4, !tbaa !26
  %60 = add nsw i32 %59, %56
  store i32 %60, ptr %58, align 4, !tbaa !26
  %61 = load i32, ptr %8, align 4, !tbaa !10
  %62 = load ptr, ptr %10, align 8, !tbaa !20
  %63 = getelementptr inbounds nuw %struct.bio_f_buffer_ctx_struct, ptr %62, i32 0, i32 3
  %64 = load i32, ptr %63, align 8, !tbaa !23
  %65 = sub nsw i32 %64, %61
  store i32 %65, ptr %63, align 8, !tbaa !23
  %66 = load i32, ptr %8, align 4, !tbaa !10
  %67 = load i32, ptr %9, align 4, !tbaa !10
  %68 = add nsw i32 %67, %66
  store i32 %68, ptr %9, align 4, !tbaa !10
  %69 = load i32, ptr %7, align 4, !tbaa !10
  %70 = load i32, ptr %8, align 4, !tbaa !10
  %71 = icmp eq i32 %69, %70
  br i1 %71, label %72, label %74

72:                                               ; preds = %44
  %73 = load i32, ptr %9, align 4, !tbaa !10
  store i32 %73, ptr %4, align 4
  store i32 1, ptr %11, align 4
  br label %123

74:                                               ; preds = %44
  %75 = load i32, ptr %8, align 4, !tbaa !10
  %76 = load i32, ptr %7, align 4, !tbaa !10
  %77 = sub nsw i32 %76, %75
  store i32 %77, ptr %7, align 4, !tbaa !10
  %78 = load i32, ptr %8, align 4, !tbaa !10
  %79 = load ptr, ptr %6, align 8, !tbaa !8
  %80 = sext i32 %78 to i64
  %81 = getelementptr inbounds i8, ptr %79, i64 %80
  store ptr %81, ptr %6, align 8, !tbaa !8
  br label %82

82:                                               ; preds = %74, %32
  %83 = load ptr, ptr %10, align 8, !tbaa !20
  %84 = load i32, ptr %7, align 4, !tbaa !10
  %85 = call i32 @readbuffer_resize(ptr noundef %83, i32 noundef %84)
  %86 = icmp ne i32 %85, 0
  br i1 %86, label %88, label %87

87:                                               ; preds = %82
  store i32 0, ptr %4, align 4
  store i32 1, ptr %11, align 4
  br label %123

88:                                               ; preds = %82
  %89 = load ptr, ptr %5, align 8, !tbaa !3
  %90 = getelementptr inbounds nuw %struct.bio_st, ptr %89, i32 0, i32 11
  %91 = load ptr, ptr %90, align 8, !tbaa !22
  %92 = load ptr, ptr %10, align 8, !tbaa !20
  %93 = getelementptr inbounds nuw %struct.bio_f_buffer_ctx_struct, ptr %92, i32 0, i32 2
  %94 = load ptr, ptr %93, align 8, !tbaa !25
  %95 = load ptr, ptr %10, align 8, !tbaa !20
  %96 = getelementptr inbounds nuw %struct.bio_f_buffer_ctx_struct, ptr %95, i32 0, i32 4
  %97 = load i32, ptr %96, align 4, !tbaa !26
  %98 = sext i32 %97 to i64
  %99 = getelementptr inbounds i8, ptr %94, i64 %98
  %100 = load i32, ptr %7, align 4, !tbaa !10
  %101 = call i32 @BIO_read(ptr noundef %91, ptr noundef %99, i32 noundef %100)
  store i32 %101, ptr %8, align 4, !tbaa !10
  %102 = load i32, ptr %8, align 4, !tbaa !10
  %103 = icmp sle i32 %102, 0
  br i1 %103, label %104, label %119

104:                                              ; preds = %88
  %105 = load ptr, ptr %5, align 8, !tbaa !3
  call void @BIO_copy_next_retry(ptr noundef %105)
  %106 = load i32, ptr %8, align 4, !tbaa !10
  %107 = icmp slt i32 %106, 0
  br i1 %107, label %108, label %117

108:                                              ; preds = %104
  %109 = load i32, ptr %9, align 4, !tbaa !10
  %110 = icmp sgt i32 %109, 0
  br i1 %110, label %111, label %113

111:                                              ; preds = %108
  %112 = load i32, ptr %9, align 4, !tbaa !10
  br label %115

113:                                              ; preds = %108
  %114 = load i32, ptr %8, align 4, !tbaa !10
  br label %115

115:                                              ; preds = %113, %111
  %116 = phi i32 [ %112, %111 ], [ %114, %113 ]
  store i32 %116, ptr %4, align 4
  store i32 1, ptr %11, align 4
  br label %123

117:                                              ; preds = %104
  %118 = load i32, ptr %9, align 4, !tbaa !10
  store i32 %118, ptr %4, align 4
  store i32 1, ptr %11, align 4
  br label %123

119:                                              ; preds = %88
  %120 = load i32, ptr %8, align 4, !tbaa !10
  %121 = load ptr, ptr %10, align 8, !tbaa !20
  %122 = getelementptr inbounds nuw %struct.bio_f_buffer_ctx_struct, ptr %121, i32 0, i32 3
  store i32 %120, ptr %122, align 8, !tbaa !23
  br label %32

123:                                              ; preds = %117, %115, %87, %72, %29, %17
  call void @llvm.lifetime.end.p0(i64 8, ptr %10) #4
  call void @llvm.lifetime.end.p0(i64 4, ptr %9) #4
  call void @llvm.lifetime.end.p0(i64 4, ptr %8) #4
  %124 = load i32, ptr %4, align 4
  ret i32 %124
}