; Function Attrs: nounwind uwtable
define internal i32 @readbuffer_read(ptr noundef %0, ptr noundef writeonly captures(address_is_null) %1, i32 noundef %2) #2 {
  %4 = icmp eq ptr %1, null
  %5 = icmp eq i32 %2, 0
  %or.cond = or i1 %4, %5
  br i1 %or.cond, label %readbuffer_resize.exit, label %6

6:                                                ; preds = %3
  %7 = getelementptr inbounds nuw i8, ptr %0, i64 64
  %8 = load ptr, ptr %7, align 8, !tbaa !3
  %9 = icmp eq ptr %8, null
  br i1 %9, label %readbuffer_resize.exit, label %10

10:                                               ; preds = %6
  %11 = getelementptr inbounds nuw i8, ptr %0, i64 72
  %12 = load ptr, ptr %11, align 8, !tbaa !17
  %13 = icmp eq ptr %12, null
  br i1 %13, label %readbuffer_resize.exit, label %14

14:                                               ; preds = %10
  tail call void @BIO_clear_flags(ptr noundef nonnull %0, i32 noundef 15) #5
  %15 = getelementptr inbounds nuw i8, ptr %8, i64 16
  %16 = getelementptr inbounds nuw i8, ptr %8, i64 8
  %17 = getelementptr inbounds nuw i8, ptr %8, i64 20
  %.pre = load i32, ptr %15, align 8, !tbaa !18
  br label %18

18:                                               ; preds = %59, %14
  %19 = phi i32 [ %.pre, %14 ], [ %52, %59 ]
  %.048 = phi ptr [ %1, %14 ], [ %.149, %59 ]
  %.046 = phi i32 [ %2, %14 ], [ %.147, %59 ]
  %.044 = phi i32 [ 0, %14 ], [ %.1, %59 ]
  %.not = icmp eq i32 %19, 0
  %.pre59 = load i32, ptr %17, align 4, !tbaa !20
  br i1 %.not, label %33, label %20

20:                                               ; preds = %18
  %spec.select = tail call i32 @llvm.smin.i32(i32 %19, i32 %.046)
  %21 = load ptr, ptr %16, align 8, !tbaa !21
  %22 = sext i32 %.pre59 to i64
  %23 = getelementptr inbounds i8, ptr %21, i64 %22
  %24 = sext i32 %spec.select to i64
  tail call void @llvm.memcpy.p0.p0.i64(ptr align 1 %.048, ptr align 1 %23, i64 %24, i1 false)
  %25 = load i32, ptr %17, align 4, !tbaa !20
  %26 = add nsw i32 %25, %spec.select
  store i32 %26, ptr %17, align 4, !tbaa !20
  %27 = load i32, ptr %15, align 8, !tbaa !18
  %28 = sub nsw i32 %27, %spec.select
  store i32 %28, ptr %15, align 8, !tbaa !18
  %29 = add nsw i32 %spec.select, %.044
  %.not58 = icmp sgt i32 %.046, %19
  br i1 %.not58, label %30, label %readbuffer_resize.exit

30:                                               ; preds = %20
  %31 = sub nsw i32 %.046, %spec.select
  %32 = getelementptr inbounds i8, ptr %.048, i64 %24
  br label %33

33:                                               ; preds = %30, %18
  %34 = phi i32 [ %26, %30 ], [ %.pre59, %18 ]
  %.149 = phi ptr [ %32, %30 ], [ %.048, %18 ]
  %.147 = phi i32 [ %31, %30 ], [ %.046, %18 ]
  %.1 = phi i32 [ %29, %30 ], [ %.044, %18 ]
  %35 = add i32 %.147, 4095
  %36 = add i32 %35, %34
  %37 = sdiv i32 %36, 4096
  %38 = shl nsw i32 %37, 12
  %39 = load i32, ptr %8, align 8, !tbaa !22
  %40 = icmp sgt i32 %38, %39
  %.pre60 = load ptr, ptr %16, align 8, !tbaa !21
  br i1 %40, label %41, label %46

41:                                               ; preds = %33
  %42 = sext i32 %38 to i64
  %43 = tail call ptr @CRYPTO_realloc(ptr noundef %.pre60, i64 noundef %42, ptr noundef nonnull @.str.2, i32 noundef 97) #5
  %44 = icmp eq ptr %43, null
  br i1 %44, label %readbuffer_resize.exit, label %45

45:                                               ; preds = %41
  store ptr %43, ptr %16, align 8, !tbaa !21
  store i32 %38, ptr %8, align 8, !tbaa !22
  %.pre61 = load i32, ptr %17, align 4, !tbaa !20
  br label %46

46:                                               ; preds = %45, %33
  %47 = phi i32 [ %.pre61, %45 ], [ %34, %33 ]
  %48 = phi ptr [ %43, %45 ], [ %.pre60, %33 ]
  %49 = load ptr, ptr %11, align 8, !tbaa !17
  %50 = sext i32 %47 to i64
  %51 = getelementptr inbounds i8, ptr %48, i64 %50
  %52 = tail call i32 @BIO_read(ptr noundef %49, ptr noundef %51, i32 noundef %.147) #5
  %53 = icmp slt i32 %52, 1
  br i1 %53, label %54, label %59

54:                                               ; preds = %46
  tail call void @BIO_copy_next_retry(ptr noundef nonnull %0) #5
  %55 = icmp slt i32 %52, 0
  br i1 %55, label %56, label %readbuffer_resize.exit

56:                                               ; preds = %54
  %57 = icmp sgt i32 %.1, 0
  %58 = select i1 %57, i32 %.1, i32 %52
  br label %readbuffer_resize.exit

59:                                               ; preds = %46
  store i32 %52, ptr %15, align 8, !tbaa !18
  br label %18

readbuffer_resize.exit:                           ; preds = %41, %20, %54, %6, %10, %3, %56
  %.0 = phi i32 [ %58, %56 ], [ 0, %3 ], [ 0, %10 ], [ 0, %6 ], [ %.1, %54 ], [ 0, %41 ], [ %29, %20 ]
  ret i32 %.0
}